target datalayout = "e-m:e-p270:32:32-p271:32:32-p272:64:64-i64:64-i128:128-f80:128-n8:16:32:64-S128"
target triple = "x86_64-pc-linux-gnu"

@stderr = external global ptr, align 8
@stdout = external global ptr, align 8
@.str.13 = private unnamed_addr constant [36 x i8] c"Usage: randpkt [options] <outfile>\0A\00", align 1
@.str.14 = private unnamed_addr constant [2 x i8] c"\0A\00", align 1
@.str.15 = private unnamed_addr constant [10 x i8] c"Options:\0A\00", align 1
@.str.16 = private unnamed_addr constant [62 x i8] c"  -b                maximum bytes per packet (default: 5000)\0A\00", align 1
@.str.17 = private unnamed_addr constant [50 x i8] c"  -c                packet count (default: 1000)\0A\00", align 1
@.str.18 = private unnamed_addr constant [56 x i8] c"  -F                output file type (default: pcapng)\0A\00", align 1
@.str.19 = private unnamed_addr constant [67 x i8] c"                    an empty \22-F\22 option will list the file types\0A\00", align 1
@.str.20 = private unnamed_addr constant [68 x i8] c"  -r                select a different random type for each packet\0A\00", align 1
@.str.21 = private unnamed_addr constant [33 x i8] c"  -t                packet type\0A\00", align 1
@.str.22 = private unnamed_addr constant [49 x i8] c"  -h, --help        display this help and exit.\0A\00", align 1
@.str.23 = private unnamed_addr constant [57 x i8] c"  -v, --version     print version information and exit.\0A\00", align 1
@.str.24 = private unnamed_addr constant [8 x i8] c"Types:\0A\00", align 1
@.str.25 = private unnamed_addr constant [10 x i8] c"\09%-16s%s\0A\00", align 1
@.str.26 = private unnamed_addr constant [65 x i8] c"\0AIf type is not specified, a random packet type will be chosen\0A\0A\00", align 1

; Function Attrs: null_pointer_is_valid sspstrong uwtable
define internal void @usage(i1 noundef zeroext %0) #0 {
  %2 = alloca i8, align 1
  %3 = alloca ptr, align 8
  %4 = alloca ptr, align 8
  %5 = alloca ptr, align 8
  %6 = alloca i32, align 4
  %7 = zext i1 %0 to i8
  store i8 %7, ptr %2, align 1
  call void @llvm.lifetime.start.p0(i64 8, ptr %3) #3
  call void @llvm.lifetime.start.p0(i64 8, ptr %4) #3
  call void @llvm.lifetime.start.p0(i64 8, ptr %5) #3
  call void @llvm.lifetime.start.p0(i64 4, ptr %6) #3
  store i32 0, ptr %6, align 4
  %8 = load i8, ptr %2, align 1, !range !9, !noundef !10
  %9 = trunc i8 %8 to i1
  br i1 %9, label %12, label %10

10:                                               ; preds = %1
  %11 = load ptr, ptr @stdout, align 8
  store ptr %11, ptr %3, align 8
  br label %14

12:                                               ; preds = %1
  %13 = load ptr, ptr @stderr, align 8
  store ptr %13, ptr %3, align 8
  br label %14

14:                                               ; preds = %12, %10
  %15 = load ptr, ptr %3, align 8
  %16 = call i32 (ptr, i32, ptr, ...) @__fprintf_chk(ptr noundef %15, i32 noundef 2, ptr noundef @.str.13)
  %17 = load ptr, ptr %3, align 8
  %18 = call i32 (ptr, i32, ptr, ...) @__fprintf_chk(ptr noundef %17, i32 noundef 2, ptr noundef @.str.14)
  %19 = load ptr, ptr %3, align 8
  %20 = call i32 (ptr, i32, ptr, ...) @__fprintf_chk(ptr noundef %19, i32 noundef 2, ptr noundef @.str.15)
  %21 = load ptr, ptr %3, align 8
  %22 = call i32 (ptr, i32, ptr, ...) @__fprintf_chk(ptr noundef %21, i32 noundef 2, ptr noundef @.str.16)
  %23 = load ptr, ptr %3, align 8
  %24 = call i32 (ptr, i32, ptr, ...) @__fprintf_chk(ptr noundef %23, i32 noundef 2, ptr noundef @.str.17)
  %25 = load ptr, ptr %3, align 8
  %26 = call i32 (ptr, i32, ptr, ...) @__fprintf_chk(ptr noundef %25, i32 noundef 2, ptr noundef @.str.18)
  %27 = load ptr, ptr %3, align 8
  %28 = call i32 (ptr, i32, ptr, ...) @__fprintf_chk(ptr noundef %27, i32 noundef 2, ptr noundef @.str.19)
  %29 = load ptr, ptr %3, align 8
  %30 = call i32 (ptr, i32, ptr, ...) @__fprintf_chk(ptr noundef %29, i32 noundef 2, ptr noundef @.str.20)
  %31 = load ptr, ptr %3, align 8
  %32 = call i32 (ptr, i32, ptr, ...) @__fprintf_chk(ptr noundef %31, i32 noundef 2, ptr noundef @.str.21)
  %33 = load ptr, ptr %3, align 8
  %34 = call i32 (ptr, i32, ptr, ...) @__fprintf_chk(ptr noundef %33, i32 noundef 2, ptr noundef @.str.22)
  %35 = load ptr, ptr %3, align 8
  %36 = call i32 (ptr, i32, ptr, ...) @__fprintf_chk(ptr noundef %35, i32 noundef 2, ptr noundef @.str.23)
  %37 = load ptr, ptr %3, align 8
  %38 = call i32 (ptr, i32, ptr, ...) @__fprintf_chk(ptr noundef %37, i32 noundef 2, ptr noundef @.str.14)
  %39 = load ptr, ptr %3, align 8
  %40 = call i32 (ptr, i32, ptr, ...) @__fprintf_chk(ptr noundef %39, i32 noundef 2, ptr noundef @.str.24)
  call void @randpkt_example_list(ptr noundef %4, ptr noundef %5)
  br label %41

41:                                               ; preds = %57, %14
  %42 = load ptr, ptr %4, align 8
  %43 = load i32, ptr %6, align 4
  %44 = zext i32 %43 to i64
  %45 = getelementptr ptr, ptr %42, i64 %44
  %46 = load ptr, ptr %45, align 8
  %47 = icmp ne ptr %46, null
  br i1 %47, label %48, label %55

48:                                               ; preds = %41
  %49 = load ptr, ptr %5, align 8
  %50 = load i32, ptr %6, align 4
  %51 = zext i32 %50 to i64
  %52 = getelementptr ptr, ptr %49, i64 %51
  %53 = load ptr, ptr %52, align 8
  %54 = icmp ne ptr %53, null
  br label %55

55:                                               ; preds = %48, %41
  %56 = phi i1 [ false, %41 ], [ %54, %48 ]
  br i1 %56, label %57, label %72

57:                                               ; preds = %55
  %58 = load ptr, ptr %3, align 8
  %59 = load ptr, ptr %4, align 8
  %60 = load i32, ptr %6, align 4
  %61 = zext i32 %60 to i64
  %62 = getelementptr ptr, ptr %59, i64 %61
  %63 = load ptr, ptr %62, align 8
  %64 = load ptr, ptr %5, align 8
  %65 = load i32, ptr %6, align 4
  %66 = zext i32 %65 to i64
  %67 = getelementptr ptr, ptr %64, i64 %66
  %68 = load ptr, ptr %67, align 8
  %69 = call i32 (ptr, i32, ptr, ...) @__fprintf_chk(ptr noundef %58, i32 noundef 2, ptr noundef @.str.25, ptr noundef %63, ptr noundef %68)
  %70 = load i32, ptr %6, align 4
  %71 = add i32 %70, 1
  store i32 %71, ptr %6, align 4
  br label %41, !llvm.loop !13

72:                                               ; preds = %55
  %73 = load ptr, ptr %4, align 8
  call void @g_strfreev(ptr noundef %73)
  %74 = load ptr, ptr %5, align 8
  call void @g_strfreev(ptr noundef %74)
  %75 = load ptr, ptr %3, align 8
  %76 = call i32 (ptr, i32, ptr, ...) @__fprintf_chk(ptr noundef %75, i32 noundef 2, ptr noundef @.str.26)
  call void @llvm.lifetime.end.p0(i64 4, ptr %6) #3
  call void @llvm.lifetime.end.p0(i64 8, ptr %5) #3
  call void @llvm.lifetime.end.p0(i64 8, ptr %4) #3
  call void @llvm.lifetime.end.p0(i64 8, ptr %3) #3
  ret void
}