; Function Attrs: null_pointer_is_valid sspstrong uwtable
define internal fastcc void @usage(i1 noundef zeroext %0) unnamed_addr #0 {
  %2 = alloca ptr, align 8
  %3 = alloca ptr, align 8
  call void @llvm.lifetime.start.p0(i64 8, ptr nonnull %2) #3
  call void @llvm.lifetime.start.p0(i64 8, ptr nonnull %3) #3
  %stderr.val = load ptr, ptr @stderr, align 8
  %stdout.val = load ptr, ptr @stdout, align 8
  %.020 = select i1 %0, ptr %stderr.val, ptr %stdout.val
  %4 = tail call i32 (ptr, i32, ptr, ...) @__fprintf_chk(ptr noundef %.020, i32 noundef 2, ptr noundef nonnull @.str.13)
  %5 = tail call i32 (ptr, i32, ptr, ...) @__fprintf_chk(ptr noundef %.020, i32 noundef 2, ptr noundef nonnull @.str.14)
  %6 = tail call i32 (ptr, i32, ptr, ...) @__fprintf_chk(ptr noundef %.020, i32 noundef 2, ptr noundef nonnull @.str.15)
  %7 = tail call i32 (ptr, i32, ptr, ...) @__fprintf_chk(ptr noundef %.020, i32 noundef 2, ptr noundef nonnull @.str.16)
  %8 = tail call i32 (ptr, i32, ptr, ...) @__fprintf_chk(ptr noundef %.020, i32 noundef 2, ptr noundef nonnull @.str.17)
  %9 = tail call i32 (ptr, i32, ptr, ...) @__fprintf_chk(ptr noundef %.020, i32 noundef 2, ptr noundef nonnull @.str.18)
  %10 = tail call i32 (ptr, i32, ptr, ...) @__fprintf_chk(ptr noundef %.020, i32 noundef 2, ptr noundef nonnull @.str.19)
  %11 = tail call i32 (ptr, i32, ptr, ...) @__fprintf_chk(ptr noundef %.020, i32 noundef 2, ptr noundef nonnull @.str.20)
  %12 = tail call i32 (ptr, i32, ptr, ...) @__fprintf_chk(ptr noundef %.020, i32 noundef 2, ptr noundef nonnull @.str.21)
  %13 = tail call i32 (ptr, i32, ptr, ...) @__fprintf_chk(ptr noundef %.020, i32 noundef 2, ptr noundef nonnull @.str.22)
  %14 = tail call i32 (ptr, i32, ptr, ...) @__fprintf_chk(ptr noundef %.020, i32 noundef 2, ptr noundef nonnull @.str.23)
  %15 = tail call i32 (ptr, i32, ptr, ...) @__fprintf_chk(ptr noundef %.020, i32 noundef 2, ptr noundef nonnull @.str.14)
  %16 = tail call i32 (ptr, i32, ptr, ...) @__fprintf_chk(ptr noundef %.020, i32 noundef 2, ptr noundef nonnull @.str.24)
  call void @randpkt_example_list(ptr noundef nonnull %2, ptr noundef nonnull %3)
  %17 = load ptr, ptr %2, align 8
  %18 = load ptr, ptr %17, align 8
  %.not24 = icmp eq ptr %18, null
  br i1 %.not24, label %.critedge, label %.lr.ph.preheader

.lr.ph.preheader:                                 ; preds = %1
  %19 = load ptr, ptr %3, align 8
  %20 = load ptr, ptr %19, align 8
  %.not2328 = icmp eq ptr %20, null
  br i1 %.not2328, label %.critedge, label %.lr.ph30

.lr.ph:                                           ; preds = %.lr.ph30
  %21 = load ptr, ptr %3, align 8
  %22 = getelementptr ptr, ptr %21, i64 %29
  %23 = load ptr, ptr %22, align 8
  %.not23 = icmp eq ptr %23, null
  br i1 %.not23, label %.critedge, label %.lr.ph30, !llvm.loop !11

.lr.ph30:                                         ; preds = %.lr.ph.preheader, %.lr.ph
  %24 = phi ptr [ %23, %.lr.ph ], [ %20, %.lr.ph.preheader ]
  %.02529 = phi i32 [ %27, %.lr.ph ], [ 0, %.lr.ph.preheader ]
  %25 = phi ptr [ %31, %.lr.ph ], [ %18, %.lr.ph.preheader ]
  %26 = call i32 (ptr, i32, ptr, ...) @__fprintf_chk(ptr noundef %.020, i32 noundef 2, ptr noundef nonnull @.str.25, ptr noundef nonnull %25, ptr noundef nonnull %24)
  %27 = add i32 %.02529, 1
  %28 = load ptr, ptr %2, align 8
  %29 = zext i32 %27 to i64
  %30 = getelementptr ptr, ptr %28, i64 %29
  %31 = load ptr, ptr %30, align 8
  %.not = icmp eq ptr %31, null
  br i1 %.not, label %.critedge, label %.lr.ph, !llvm.loop !11

.critedge:                                        ; preds = %.lr.ph30, %.lr.ph, %.lr.ph.preheader, %1
  %.lcssa = phi ptr [ %17, %1 ], [ %17, %.lr.ph.preheader ], [ %28, %.lr.ph ], [ %28, %.lr.ph30 ]
  call void @g_strfreev(ptr noundef %.lcssa)
  %32 = load ptr, ptr %3, align 8
  call void @g_strfreev(ptr noundef %32)
  %33 = call i32 (ptr, i32, ptr, ...) @__fprintf_chk(ptr noundef %.020, i32 noundef 2, ptr noundef nonnull @.str.26)
  call void @llvm.lifetime.end.p0(i64 8, ptr nonnull %3) #3
  call void @llvm.lifetime.end.p0(i64 8, ptr nonnull %2) #3
  ret void
}